; Function Attrs: nounwind uwtable
define noalias noundef ptr @Abc_NtkCollectCoNames(ptr noundef readonly captures(none) %0) local_unnamed_addr #1 {
  %2 = tail call noalias dereferenceable_or_null(16) ptr @malloc(i64 noundef 16) #18
  %3 = getelementptr inbounds nuw i8, ptr %2, i64 4
  store i32 0, ptr %3, align 4
  store i32 100, ptr %2, align 8
  %4 = tail call noalias dereferenceable_or_null(800) ptr @malloc(i64 noundef 800) #18
  %5 = getelementptr inbounds nuw i8, ptr %2, i64 8
  store ptr %4, ptr %5, align 8
  %6 = getelementptr i8, ptr %0, i64 64
  %.val8 = load ptr, ptr %6, align 8
  %7 = getelementptr i8, ptr %.val8, i64 4
  %.val.val9 = load i32, ptr %7, align 4
  %8 = icmp sgt i32 %.val.val9, 0
  br i1 %8, label %.lr.ph, label %.critedge

.lr.ph:                                           ; preds = %1, %Vec_PtrPush.exit
  %indvars.iv = phi i64 [ %indvars.iv.next, %Vec_PtrPush.exit ], [ 0, %1 ]
  %.val11 = phi ptr [ %.val, %Vec_PtrPush.exit ], [ %.val8, %1 ]
  %9 = getelementptr i8, ptr %.val11, i64 8
  %.val7.val = load ptr, ptr %9, align 8
  %10 = getelementptr inbounds nuw ptr, ptr %.val7.val, i64 %indvars.iv
  %11 = load ptr, ptr %10, align 8
  %12 = tail call ptr @Abc_ObjName(ptr noundef %11) #19
  %13 = tail call ptr @Extra_UtilStrsav(ptr noundef %12) #19
  %14 = load i32, ptr %3, align 4
  %15 = load i32, ptr %2, align 8
  %16 = icmp eq i32 %14, %15
  br i1 %16, label %17, label %.Vec_PtrGrow.exit11_crit_edge.i

.Vec_PtrGrow.exit11_crit_edge.i:                  ; preds = %.lr.ph
  %.pre.i = load ptr, ptr %5, align 8
  br label %Vec_PtrPush.exit

17:                                               ; preds = %.lr.ph
  %18 = icmp slt i32 %14, 16
  br i1 %18, label %19, label %26

19:                                               ; preds = %17
  %20 = load ptr, ptr %5, align 8
  %.not9.i.i = icmp eq ptr %20, null
  br i1 %.not9.i.i, label %23, label %21

21:                                               ; preds = %19
  %22 = tail call dereferenceable_or_null(128) ptr @realloc(ptr noundef nonnull %20, i64 noundef 128) #17
  br label %Vec_PtrGrow.exit.i

23:                                               ; preds = %19
  %24 = tail call noalias dereferenceable_or_null(128) ptr @malloc(i64 noundef 128) #18
  br label %Vec_PtrGrow.exit.i

Vec_PtrGrow.exit.i:                               ; preds = %23, %21
  %25 = phi ptr [ %22, %21 ], [ %24, %23 ]
  store ptr %25, ptr %5, align 8
  store i32 16, ptr %2, align 8
  br label %Vec_PtrPush.exit

26:                                               ; preds = %17
  %27 = shl nuw nsw i32 %14, 1
  %28 = load ptr, ptr %5, align 8
  %.not9.i10.i = icmp eq ptr %28, null
  %29 = zext nneg i32 %27 to i64
  %30 = shl nuw nsw i64 %29, 3
  br i1 %.not9.i10.i, label %33, label %31

31:                                               ; preds = %26
  %32 = tail call ptr @realloc(ptr noundef nonnull %28, i64 noundef %30) #17
  br label %35

33:                                               ; preds = %26
  %34 = tail call noalias ptr @malloc(i64 noundef %30) #18
  br label %35

35:                                               ; preds = %33, %31
  %36 = phi ptr [ %32, %31 ], [ %34, %33 ]
  store ptr %36, ptr %5, align 8
  store i32 %27, ptr %2, align 8
  br label %Vec_PtrPush.exit

Vec_PtrPush.exit:                                 ; preds = %.Vec_PtrGrow.exit11_crit_edge.i, %Vec_PtrGrow.exit.i, %35
  %37 = phi ptr [ %.pre.i, %.Vec_PtrGrow.exit11_crit_edge.i ], [ %36, %35 ], [ %25, %Vec_PtrGrow.exit.i ]
  %38 = add nsw i32 %14, 1
  store i32 %38, ptr %3, align 4
  %39 = sext i32 %14 to i64
  %40 = getelementptr inbounds ptr, ptr %37, i64 %39
  store ptr %13, ptr %40, align 8
  %indvars.iv.next = add nuw nsw i64 %indvars.iv, 1
  %.val = load ptr, ptr %6, align 8
  %41 = getelementptr i8, ptr %.val, i64 4
  %.val.val = load i32, ptr %41, align 4
  %42 = sext i32 %.val.val to i64
  %43 = icmp slt i64 %indvars.iv.next, %42
  br i1 %43, label %.lr.ph, label %.critedge, !llvm.loop !76

.critedge:                                        ; preds = %Vec_PtrPush.exit, %1
  ret ptr %2
}